target datalayout = "e-m:e-p270:32:32-p271:32:32-p272:64:64-i64:64-i128:128-f80:128-n8:16:32:64-S128"
target triple = "x86_64-pc-linux-gnu"

; Function Attrs: nounwind uwtable
define internal void @gray8(ptr noundef %0, ptr noundef %1, i64 noundef %2, i32 noundef %3) #3 {
  %5 = alloca ptr, align 8
  %6 = alloca ptr, align 8
  %7 = alloca i64, align 8
  %8 = alloca i32, align 4
  store ptr %0, ptr %5, align 8, !tbaa !4
  store ptr %1, ptr %6, align 8, !tbaa !4
  store i64 %2, ptr %7, align 8, !tbaa !52
  store i32 %3, ptr %8, align 4, !tbaa !13
  br label %9

9:                                                ; preds = %13, %4
  %10 = load i32, ptr %8, align 4, !tbaa !13
  %11 = add nsw i32 %10, -1
  store i32 %11, ptr %8, align 4, !tbaa !13
  %12 = icmp ne i32 %10, 0
  br i1 %12, label %13, label %20

13:                                               ; preds = %9
  %14 = load ptr, ptr %5, align 8, !tbaa !4
  %15 = load i32, ptr %8, align 4, !tbaa !13
  %16 = sext i32 %15 to i64
  %17 = load i64, ptr %7, align 8, !tbaa !52
  %18 = mul nsw i64 %16, %17
  %19 = getelementptr inbounds i8, ptr %14, i64 %18
  call void @llvm.memset.p0.i64(ptr align 1 %19, i8 -128, i64 8, i1 false)
  br label %9, !llvm.loop !147

20:                                               ; preds = %9
  ret void
}